target datalayout = "e-m:e-p270:32:32-p271:32:32-p272:64:64-i64:64-i128:128-f80:128-n8:16:32:64-S128"
target triple = "x86_64-pc-linux-gnu"

%"class.icu_77::UVector64" = type { %"class.icu_77::UObject", i32, i32, i32, ptr }
%"class.icu_77::UObject" = type { ptr }

; Function Attrs: inlinehint mustprogress nounwind uwtable
define internal noundef signext i8 @_ZL9U_FAILURE10UErrorCode(i32 noundef %0) #2 {
  %2 = alloca i32, align 4
  store i32 %0, ptr %2, align 4, !tbaa !22
  %3 = load i32, ptr %2, align 4, !tbaa !22
  %4 = icmp sgt i32 %3, 0
  %5 = zext i1 %4 to i8
  ret i8 %5
}

; Function Attrs: mustprogress uwtable
define noundef signext i8 @_ZN6icu_779UVector6414expandCapacityEiR10UErrorCode(ptr noundef nonnull align 8 dereferenceable(32) %0, i32 noundef %1, ptr noundef nonnull align 4 dereferenceable(4) %2) #1 align 2 {
  %4 = alloca i8, align 1
  %5 = alloca ptr, align 8
  %6 = alloca i32, align 4
  %7 = alloca ptr, align 8
  %8 = alloca i32, align 4
  %9 = alloca i32, align 4
  %10 = alloca ptr, align 8
  store ptr %0, ptr %5, align 8, !tbaa !3
  store i32 %1, ptr %6, align 4, !tbaa !21
  store ptr %2, ptr %7, align 8, !tbaa !8
  %11 = load ptr, ptr %5, align 8
  %12 = load ptr, ptr %7, align 8, !tbaa !8
  %13 = load i32, ptr %12, align 4, !tbaa !22
  %14 = call noundef signext i8 @_ZL9U_FAILURE10UErrorCode(i32 noundef %13)
  %15 = icmp ne i8 %14, 0
  br i1 %15, label %16, label %17

16:                                               ; preds = %3
  store i8 0, ptr %4, align 1
  br label %89

17:                                               ; preds = %3
  %18 = load i32, ptr %6, align 4, !tbaa !21
  %19 = icmp slt i32 %18, 0
  br i1 %19, label %20, label %22

20:                                               ; preds = %17
  %21 = load ptr, ptr %7, align 8, !tbaa !8
  store i32 1, ptr %21, align 4, !tbaa !22
  store i8 0, ptr %4, align 1
  br label %89

22:                                               ; preds = %17
  %23 = getelementptr inbounds nuw %"class.icu_77::UVector64", ptr %11, i32 0, i32 2
  %24 = load i32, ptr %23, align 4, !tbaa !16
  %25 = load i32, ptr %6, align 4, !tbaa !21
  %26 = icmp sge i32 %24, %25
  br i1 %26, label %27, label %28

27:                                               ; preds = %22
  store i8 1, ptr %4, align 1
  br label %89

28:                                               ; preds = %22
  %29 = getelementptr inbounds nuw %"class.icu_77::UVector64", ptr %11, i32 0, i32 3
  %30 = load i32, ptr %29, align 8, !tbaa !17
  %31 = icmp sgt i32 %30, 0
  br i1 %31, label %32, label %39

32:                                               ; preds = %28
  %33 = load i32, ptr %6, align 4, !tbaa !21
  %34 = getelementptr inbounds nuw %"class.icu_77::UVector64", ptr %11, i32 0, i32 3
  %35 = load i32, ptr %34, align 8, !tbaa !17
  %36 = icmp sgt i32 %33, %35
  br i1 %36, label %37, label %39

37:                                               ; preds = %32
  %38 = load ptr, ptr %7, align 8, !tbaa !8
  store i32 15, ptr %38, align 4, !tbaa !22
  store i8 0, ptr %4, align 1
  br label %89

39:                                               ; preds = %32, %28
  %40 = getelementptr inbounds nuw %"class.icu_77::UVector64", ptr %11, i32 0, i32 2
  %41 = load i32, ptr %40, align 4, !tbaa !16
  %42 = icmp sgt i32 %41, 1073741823
  br i1 %42, label %43, label %45

43:                                               ; preds = %39
  %44 = load ptr, ptr %7, align 8, !tbaa !8
  store i32 1, ptr %44, align 4, !tbaa !22
  store i8 0, ptr %4, align 1
  br label %89

45:                                               ; preds = %39
  call void @llvm.lifetime.start.p0(i64 4, ptr %8) #10
  %46 = getelementptr inbounds nuw %"class.icu_77::UVector64", ptr %11, i32 0, i32 2
  %47 = load i32, ptr %46, align 4, !tbaa !16
  %48 = mul nsw i32 %47, 2
  store i32 %48, ptr %8, align 4, !tbaa !21
  %49 = load i32, ptr %8, align 4, !tbaa !21
  %50 = load i32, ptr %6, align 4, !tbaa !21
  %51 = icmp slt i32 %49, %50
  br i1 %51, label %52, label %54

52:                                               ; preds = %45
  %53 = load i32, ptr %6, align 4, !tbaa !21
  store i32 %53, ptr %8, align 4, !tbaa !21
  br label %54

54:                                               ; preds = %52, %45
  %55 = getelementptr inbounds nuw %"class.icu_77::UVector64", ptr %11, i32 0, i32 3
  %56 = load i32, ptr %55, align 8, !tbaa !17
  %57 = icmp sgt i32 %56, 0
  br i1 %57, label %58, label %66

58:                                               ; preds = %54
  %59 = load i32, ptr %8, align 4, !tbaa !21
  %60 = getelementptr inbounds nuw %"class.icu_77::UVector64", ptr %11, i32 0, i32 3
  %61 = load i32, ptr %60, align 8, !tbaa !17
  %62 = icmp sgt i32 %59, %61
  br i1 %62, label %63, label %66

63:                                               ; preds = %58
  %64 = getelementptr inbounds nuw %"class.icu_77::UVector64", ptr %11, i32 0, i32 3
  %65 = load i32, ptr %64, align 8, !tbaa !17
  store i32 %65, ptr %8, align 4, !tbaa !21
  br label %66

66:                                               ; preds = %63, %58, %54
  %67 = load i32, ptr %8, align 4, !tbaa !21
  %68 = icmp sgt i32 %67, 268435455
  br i1 %68, label %69, label %71

69:                                               ; preds = %66
  %70 = load ptr, ptr %7, align 8, !tbaa !8
  store i32 1, ptr %70, align 4, !tbaa !22
  store i8 0, ptr %4, align 1
  store i32 1, ptr %9, align 4
  br label %88

71:                                               ; preds = %66
  call void @llvm.lifetime.start.p0(i64 8, ptr %10) #10
  %72 = getelementptr inbounds nuw %"class.icu_77::UVector64", ptr %11, i32 0, i32 4
  %73 = load ptr, ptr %72, align 8, !tbaa !18
  %74 = load i32, ptr %8, align 4, !tbaa !21
  %75 = sext i32 %74 to i64
  %76 = mul i64 8, %75
  %77 = call ptr @uprv_realloc_77(ptr noundef %73, i64 noundef %76) #13
  store ptr %77, ptr %10, align 8, !tbaa !31
  %78 = load ptr, ptr %10, align 8, !tbaa !31
  %79 = icmp eq ptr %78, null
  br i1 %79, label %80, label %82

80:                                               ; preds = %71
  %81 = load ptr, ptr %7, align 8, !tbaa !8
  store i32 7, ptr %81, align 4, !tbaa !22
  store i8 0, ptr %4, align 1
  store i32 1, ptr %9, align 4
  br label %87

82:                                               ; preds = %71
  %83 = load ptr, ptr %10, align 8, !tbaa !31
  %84 = getelementptr inbounds nuw %"class.icu_77::UVector64", ptr %11, i32 0, i32 4
  store ptr %83, ptr %84, align 8, !tbaa !18
  %85 = load i32, ptr %8, align 4, !tbaa !21
  %86 = getelementptr inbounds nuw %"class.icu_77::UVector64", ptr %11, i32 0, i32 2
  store i32 %85, ptr %86, align 4, !tbaa !16
  store i8 1, ptr %4, align 1
  store i32 1, ptr %9, align 4
  br label %87

87:                                               ; preds = %82, %80
  call void @llvm.lifetime.end.p0(i64 8, ptr %10) #10
  br label %88

88:                                               ; preds = %87, %69
  call void @llvm.lifetime.end.p0(i64 4, ptr %8) #10
  br label %89

89:                                               ; preds = %88, %43, %37, %27, %20, %16
  %90 = load i8, ptr %4, align 1
  ret i8 %90
}

; Function Attrs: inlinehint mustprogress uwtable
define linkonce_odr noundef signext i8 @_ZN6icu_779UVector6414ensureCapacityEiR10UErrorCode(ptr noundef nonnull align 8 dereferenceable(32) %0, i32 noundef %1, ptr noundef nonnull align 4 dereferenceable(4) %2) #7 comdat align 2 {
  %4 = alloca i8, align 1
  %5 = alloca ptr, align 8
  %6 = alloca i32, align 4
  %7 = alloca ptr, align 8
  store ptr %0, ptr %5, align 8, !tbaa !3
  store i32 %1, ptr %6, align 4, !tbaa !21
  store ptr %2, ptr %7, align 8, !tbaa !8
  %8 = load ptr, ptr %5, align 8
  %9 = load i32, ptr %6, align 4, !tbaa !21
  %10 = icmp sge i32 %9, 0
  br i1 %10, label %11, label %17

11:                                               ; preds = %3
  %12 = getelementptr inbounds nuw %"class.icu_77::UVector64", ptr %8, i32 0, i32 2
  %13 = load i32, ptr %12, align 4, !tbaa !16
  %14 = load i32, ptr %6, align 4, !tbaa !21
  %15 = icmp sge i32 %13, %14
  br i1 %15, label %16, label %17

16:                                               ; preds = %11
  store i8 1, ptr %4, align 1
  br label %21

17:                                               ; preds = %11, %3
  %18 = load i32, ptr %6, align 4, !tbaa !21
  %19 = load ptr, ptr %7, align 8, !tbaa !8
  %20 = call noundef signext i8 @_ZN6icu_779UVector6414expandCapacityEiR10UErrorCode(ptr noundef nonnull align 8 dereferenceable(32) %8, i32 noundef %18, ptr noundef nonnull align 4 dereferenceable(4) %19)
  store i8 %20, ptr %4, align 1
  br label %21

21:                                               ; preds = %17, %16
  %22 = load i8, ptr %4, align 1
  ret i8 %22
}

; Function Attrs: mustprogress uwtable
define void @_ZN6icu_779UVector647setSizeEi(ptr noundef nonnull align 8 dereferenceable(32) %0, i32 noundef %1) #1 align 2 {
  %3 = alloca ptr, align 8
  %4 = alloca i32, align 4
  %5 = alloca i32, align 4
  %6 = alloca i32, align 4
  %7 = alloca i32, align 4
  store ptr %0, ptr %3, align 8, !tbaa !3
  store i32 %1, ptr %4, align 4, !tbaa !21
  %8 = load ptr, ptr %3, align 8
  call void @llvm.lifetime.start.p0(i64 4, ptr %5) #10
  %9 = load i32, ptr %4, align 4, !tbaa !21
  %10 = icmp slt i32 %9, 0
  br i1 %10, label %11, label %12

11:                                               ; preds = %2
  store i32 1, ptr %6, align 4
  br label %45

12:                                               ; preds = %2
  %13 = load i32, ptr %4, align 4, !tbaa !21
  %14 = getelementptr inbounds nuw %"class.icu_77::UVector64", ptr %8, i32 0, i32 1
  %15 = load i32, ptr %14, align 8, !tbaa !11
  %16 = icmp sgt i32 %13, %15
  br i1 %16, label %17, label %42

17:                                               ; preds = %12
  call void @llvm.lifetime.start.p0(i64 4, ptr %7) #10
  store i32 0, ptr %7, align 4, !tbaa !22
  %18 = load i32, ptr %4, align 4, !tbaa !21
  %19 = call noundef signext i8 @_ZN6icu_779UVector6414ensureCapacityEiR10UErrorCode(ptr noundef nonnull align 8 dereferenceable(32) %8, i32 noundef %18, ptr noundef nonnull align 4 dereferenceable(4) %7)
  %20 = icmp ne i8 %19, 0
  br i1 %20, label %22, label %21

21:                                               ; preds = %17
  store i32 1, ptr %6, align 4
  br label %39

22:                                               ; preds = %17
  %23 = getelementptr inbounds nuw %"class.icu_77::UVector64", ptr %8, i32 0, i32 1
  %24 = load i32, ptr %23, align 8, !tbaa !11
  store i32 %24, ptr %5, align 4, !tbaa !21
  br label %25

25:                                               ; preds = %35, %22
  %26 = load i32, ptr %5, align 4, !tbaa !21
  %27 = load i32, ptr %4, align 4, !tbaa !21
  %28 = icmp slt i32 %26, %27
  br i1 %28, label %29, label %38

29:                                               ; preds = %25
  %30 = getelementptr inbounds nuw %"class.icu_77::UVector64", ptr %8, i32 0, i32 4
  %31 = load ptr, ptr %30, align 8, !tbaa !18
  %32 = load i32, ptr %5, align 4, !tbaa !21
  %33 = sext i32 %32 to i64
  %34 = getelementptr inbounds i64, ptr %31, i64 %33
  store i64 0, ptr %34, align 8, !tbaa !24
  br label %35

35:                                               ; preds = %29
  %36 = load i32, ptr %5, align 4, !tbaa !21
  %37 = add nsw i32 %36, 1
  store i32 %37, ptr %5, align 4, !tbaa !21
  br label %25, !llvm.loop !28

38:                                               ; preds = %25
  store i32 0, ptr %6, align 4
  br label %39

39:                                               ; preds = %38, %21
  call void @llvm.lifetime.end.p0(i64 4, ptr %7) #10
  %40 = load i32, ptr %6, align 4
  switch i32 %40, label %45 [
    i32 0, label %41
  ]

41:                                               ; preds = %39
  br label %42

42:                                               ; preds = %41, %12
  %43 = load i32, ptr %4, align 4, !tbaa !21
  %44 = getelementptr inbounds nuw %"class.icu_77::UVector64", ptr %8, i32 0, i32 1
  store i32 %43, ptr %44, align 8, !tbaa !11
  store i32 0, ptr %6, align 4
  br label %45

45:                                               ; preds = %42, %39, %11
  call void @llvm.lifetime.end.p0(i64 4, ptr %5) #10
  %46 = load i32, ptr %6, align 4
  switch i32 %46, label %48 [
    i32 0, label %47
    i32 1, label %47
  ]

47:                                               ; preds = %45, %45
  ret void

48:                                               ; preds = %45
  unreachable
}