; Function Attrs: mustprogress uwtable
define void @_ZN6icu_779UVector647setSizeEi(ptr noundef nonnull align 8 captures(none) dereferenceable(32) %0, i32 noundef %1) local_unnamed_addr #1 align 2 {
  %3 = icmp slt i32 %1, 0
  br i1 %3, label %.critedge, label %4

4:                                                ; preds = %2
  %5 = getelementptr inbounds nuw i8, ptr %0, i64 8
  %6 = load i32, ptr %5, align 8, !tbaa !6
  %7 = icmp sgt i32 %1, %6
  br i1 %7, label %8, label %.loopexit

8:                                                ; preds = %4
  %9 = getelementptr inbounds nuw i8, ptr %0, i64 12
  %10 = load i32, ptr %9, align 4
  %.not.i = icmp slt i32 %10, %1
  br i1 %.not.i, label %11, label %_ZN6icu_779UVector6414ensureCapacityEiR10UErrorCode.exit

11:                                               ; preds = %8
  %12 = getelementptr inbounds nuw i8, ptr %0, i64 16
  %13 = load i32, ptr %12, align 8, !tbaa !14
  %14 = icmp sgt i32 %13, 0
  %15 = icmp sgt i32 %1, %13
  %or.cond.i.i = and i1 %14, %15
  %16 = icmp sgt i32 %10, 1073741823
  %or.cond = or i1 %16, %or.cond.i.i
  br i1 %or.cond, label %.critedge, label %17

17:                                               ; preds = %11
  %18 = shl nsw i32 %10, 1
  %spec.select.i.i = tail call i32 @llvm.smax.i32(i32 %18, i32 %1)
  %19 = tail call i32 @llvm.smin.i32(i32 %spec.select.i.i, i32 %13)
  %.120.i.i = select i1 %14, i32 %19, i32 %spec.select.i.i
  %20 = icmp sgt i32 %.120.i.i, 268435455
  br i1 %20, label %.critedge, label %21

21:                                               ; preds = %17
  %22 = getelementptr inbounds nuw i8, ptr %0, i64 24
  %23 = load ptr, ptr %22, align 8, !tbaa !15
  %24 = zext nneg i32 %.120.i.i to i64
  %25 = shl nuw nsw i64 %24, 3
  %26 = tail call ptr @uprv_realloc_77(ptr noundef %23, i64 noundef %25) #17
  %27 = icmp eq ptr %26, null
  br i1 %27, label %.critedge, label %28

28:                                               ; preds = %21
  store ptr %26, ptr %22, align 8, !tbaa !15
  store i32 %.120.i.i, ptr %9, align 4, !tbaa !13
  %.pre = load i32, ptr %5, align 8, !tbaa !6
  br label %_ZN6icu_779UVector6414ensureCapacityEiR10UErrorCode.exit

_ZN6icu_779UVector6414ensureCapacityEiR10UErrorCode.exit: ; preds = %28, %8
  %29 = phi i32 [ %.pre, %28 ], [ %6, %8 ]
  %30 = icmp slt i32 %29, %1
  br i1 %30, label %.lr.ph, label %.loopexit

.lr.ph:                                           ; preds = %_ZN6icu_779UVector6414ensureCapacityEiR10UErrorCode.exit
  %31 = getelementptr inbounds nuw i8, ptr %0, i64 24
  %32 = load ptr, ptr %31, align 8, !tbaa !15
  %33 = sext i32 %29 to i64
  %34 = shl nsw i64 %33, 3
  %scevgep = getelementptr i8, ptr %32, i64 %34
  %35 = xor i32 %29, -1
  %36 = add i32 %1, %35
  %37 = zext i32 %36 to i64
  %38 = shl nuw nsw i64 %37, 3
  %39 = add nuw nsw i64 %38, 8
  tail call void @llvm.memset.p0.i64(ptr noundef nonnull align 8 dereferenceable(1) %scevgep, i8 0, i64 %39, i1 false), !tbaa !18
  br label %.loopexit

.loopexit:                                        ; preds = %.lr.ph, %_ZN6icu_779UVector6414ensureCapacityEiR10UErrorCode.exit, %4
  store i32 %1, ptr %5, align 8, !tbaa !6
  br label %.critedge

.critedge:                                        ; preds = %21, %17, %11, %2, %.loopexit
  ret void
}